target datalayout = "e-m:e-p270:32:32-p271:32:32-p272:64:64-i64:64-i128:128-f80:128-n8:16:32:64-S128"
target triple = "x86_64-pc-linux-gnu"

%struct._zval_struct = type { %union._zend_value, %union.anon, %union.anon.2 }
%union._zend_value = type { i64 }
%union.anon = type { i32 }
%union.anon.2 = type { i32 }
%struct._zend_refcounted_h = type { i32, %union.anon.3 }
%union.anon.3 = type { i32 }
%struct._zend_execute_data = type { ptr, ptr, ptr, ptr, %struct._zval_struct, ptr, ptr, ptr, ptr }
%struct.anon.0 = type { i8, i8, %union.anon.1 }
%union.anon.1 = type { i16 }
%struct._zend_resource = type { %struct._zend_refcounted_h, i64, i32, ptr }

; Function Attrs: alwaysinline nounwind uwtable
define internal zeroext i8 @zval_get_type(ptr noundef %0) #5 {
  %2 = alloca ptr, align 8
  store ptr %0, ptr %2, align 8, !tbaa !67
  %3 = load ptr, ptr %2, align 8, !tbaa !67
  %4 = getelementptr inbounds nuw %struct._zval_struct, ptr %3, i32 0, i32 1
  %5 = getelementptr inbounds nuw %struct.anon.0, ptr %4, i32 0, i32 0
  %6 = load i8, ptr %5, align 8, !tbaa !31
  ret i8 %6
}

; Function Attrs: alwaysinline nounwind uwtable
define internal zeroext i1 @zend_parse_arg_resource(ptr noundef %0, ptr noundef %1, i1 noundef zeroext %2) #5 {
  %4 = alloca i1, align 1
  %5 = alloca ptr, align 8
  %6 = alloca ptr, align 8
  %7 = alloca i8, align 1
  store ptr %0, ptr %5, align 8, !tbaa !67
  store ptr %1, ptr %6, align 8, !tbaa !121
  %8 = zext i1 %2 to i8
  store i8 %8, ptr %7, align 1, !tbaa !70
  %9 = load ptr, ptr %5, align 8, !tbaa !67
  %10 = call zeroext i8 @zval_get_type(ptr noundef %9)
  %11 = zext i8 %10 to i32
  %12 = icmp eq i32 %11, 9
  %13 = xor i1 %12, true
  %14 = xor i1 %13, true
  %15 = zext i1 %14 to i32
  %16 = sext i32 %15 to i64
  %17 = call i64 @llvm.expect.i64(i64 %16, i64 1)
  %18 = icmp ne i64 %17, 0
  br i1 %18, label %19, label %22

19:                                               ; preds = %3
  %20 = load ptr, ptr %5, align 8, !tbaa !67
  %21 = load ptr, ptr %6, align 8, !tbaa !121
  store ptr %20, ptr %21, align 8, !tbaa !67
  br label %40

22:                                               ; preds = %3
  %23 = load i8, ptr %7, align 1, !tbaa !70, !range !71, !noundef !72
  %24 = trunc i8 %23 to i1
  br i1 %24, label %25, label %38

25:                                               ; preds = %22
  %26 = load ptr, ptr %5, align 8, !tbaa !67
  %27 = call zeroext i8 @zval_get_type(ptr noundef %26)
  %28 = zext i8 %27 to i32
  %29 = icmp eq i32 %28, 1
  %30 = xor i1 %29, true
  %31 = xor i1 %30, true
  %32 = zext i1 %31 to i32
  %33 = sext i32 %32 to i64
  %34 = call i64 @llvm.expect.i64(i64 %33, i64 1)
  %35 = icmp ne i64 %34, 0
  br i1 %35, label %36, label %38

36:                                               ; preds = %25
  %37 = load ptr, ptr %6, align 8, !tbaa !121
  store ptr null, ptr %37, align 8, !tbaa !67
  br label %39

38:                                               ; preds = %25, %22
  store i1 false, ptr %4, align 1
  br label %41

39:                                               ; preds = %36
  br label %40

40:                                               ; preds = %39, %19
  store i1 true, ptr %4, align 1
  br label %41

41:                                               ; preds = %40, %38
  %42 = load i1, ptr %4, align 1
  ret i1 %42
}

; Function Attrs: nounwind uwtable
define hidden void @zif_get_resource_id(ptr noundef %0, ptr noundef %1) #0 {
  %3 = alloca ptr, align 8
  %4 = alloca ptr, align 8
  %5 = alloca ptr, align 8
  %6 = alloca i32, align 4
  %7 = alloca i32, align 4
  %8 = alloca i32, align 4
  %9 = alloca i32, align 4
  %10 = alloca i32, align 4
  %11 = alloca ptr, align 8
  %12 = alloca ptr, align 8
  %13 = alloca i32, align 4
  %14 = alloca ptr, align 8
  %15 = alloca i8, align 1
  %16 = alloca i8, align 1
  %17 = alloca i32, align 4
  %18 = alloca i32, align 4
  %19 = alloca ptr, align 8
  store ptr %0, ptr %3, align 8, !tbaa !66
  store ptr %1, ptr %4, align 8, !tbaa !67
  call void @llvm.lifetime.start.p0(i64 8, ptr %5) #14
  br label %20

20:                                               ; preds = %2
  call void @llvm.lifetime.start.p0(i64 4, ptr %6) #14
  store i32 0, ptr %6, align 4, !tbaa !4
  call void @llvm.lifetime.start.p0(i64 4, ptr %7) #14
  store i32 1, ptr %7, align 4, !tbaa !4
  call void @llvm.lifetime.start.p0(i64 4, ptr %8) #14
  store i32 1, ptr %8, align 4, !tbaa !4
  call void @llvm.lifetime.start.p0(i64 4, ptr %9) #14
  %21 = load ptr, ptr %3, align 8, !tbaa !66
  %22 = getelementptr inbounds nuw %struct._zend_execute_data, ptr %21, i32 0, i32 4
  %23 = getelementptr inbounds nuw %struct._zval_struct, ptr %22, i32 0, i32 2
  %24 = load i32, ptr %23, align 4, !tbaa !31
  store i32 %24, ptr %9, align 4, !tbaa !4
  call void @llvm.lifetime.start.p0(i64 4, ptr %10) #14
  store i32 0, ptr %10, align 4, !tbaa !4
  call void @llvm.lifetime.start.p0(i64 8, ptr %11) #14
  call void @llvm.lifetime.start.p0(i64 8, ptr %12) #14
  store ptr null, ptr %12, align 8, !tbaa !67
  call void @llvm.lifetime.start.p0(i64 4, ptr %13) #14
  store i32 0, ptr %13, align 4, !tbaa !4
  call void @llvm.lifetime.start.p0(i64 8, ptr %14) #14
  store ptr null, ptr %14, align 8, !tbaa !69
  call void @llvm.lifetime.start.p0(i64 1, ptr %15) #14
  store i8 0, ptr %15, align 1, !tbaa !70
  call void @llvm.lifetime.start.p0(i64 1, ptr %16) #14
  store i8 0, ptr %16, align 1, !tbaa !70
  call void @llvm.lifetime.start.p0(i64 4, ptr %17) #14
  store i32 0, ptr %17, align 4, !tbaa !4
  br label %25

25:                                               ; preds = %20
  %26 = load i32, ptr %9, align 4, !tbaa !4
  %27 = load i32, ptr %7, align 4, !tbaa !4
  %28 = icmp ult i32 %26, %27
  %29 = xor i1 %28, true
  %30 = xor i1 %29, true
  %31 = zext i1 %30 to i32
  %32 = sext i32 %31 to i64
  %33 = call i64 @llvm.expect.i64(i64 %32, i64 0)
  %34 = icmp ne i64 %33, 0
  br i1 %34, label %45, label %35

35:                                               ; preds = %25
  %36 = load i32, ptr %9, align 4, !tbaa !4
  %37 = load i32, ptr %8, align 4, !tbaa !4
  %38 = icmp ugt i32 %36, %37
  %39 = xor i1 %38, true
  %40 = xor i1 %39, true
  %41 = zext i1 %40 to i32
  %42 = sext i32 %41 to i64
  %43 = call i64 @llvm.expect.i64(i64 %42, i64 0)
  %44 = icmp ne i64 %43, 0
  br i1 %44, label %45, label %48

45:                                               ; preds = %35, %25
  %46 = load i32, ptr %7, align 4, !tbaa !4
  %47 = load i32, ptr %8, align 4, !tbaa !4
  call void @zend_wrong_parameters_count_error(i32 noundef %46, i32 noundef %47)
  store i32 1, ptr %17, align 4, !tbaa !4
  br label %111

48:                                               ; preds = %35
  %49 = load ptr, ptr %3, align 8, !tbaa !66
  %50 = getelementptr inbounds %struct._zval_struct, ptr %49, i64 4
  store ptr %50, ptr %11, align 8, !tbaa !67
  %51 = load i32, ptr %10, align 4, !tbaa !4
  %52 = add i32 %51, 1
  store i32 %52, ptr %10, align 4, !tbaa !4
  %53 = load i32, ptr %10, align 4, !tbaa !4
  %54 = load i32, ptr %7, align 4, !tbaa !4
  %55 = icmp ule i32 %53, %54
  br i1 %55, label %61, label %56

56:                                               ; preds = %48
  %57 = load i8, ptr %16, align 1, !tbaa !70, !range !71, !noundef !72
  %58 = trunc i8 %57 to i1
  %59 = zext i1 %58 to i32
  %60 = icmp eq i32 %59, 1
  br label %61

61:                                               ; preds = %56, %48
  %62 = phi i1 [ true, %48 ], [ %60, %56 ]
  call void @llvm.assume(i1 %62)
  %63 = load i32, ptr %10, align 4, !tbaa !4
  %64 = load i32, ptr %7, align 4, !tbaa !4
  %65 = icmp ugt i32 %63, %64
  br i1 %65, label %71, label %66

66:                                               ; preds = %61
  %67 = load i8, ptr %16, align 1, !tbaa !70, !range !71, !noundef !72
  %68 = trunc i8 %67 to i1
  %69 = zext i1 %68 to i32
  %70 = icmp eq i32 %69, 0
  br label %71

71:                                               ; preds = %66, %61
  %72 = phi i1 [ true, %61 ], [ %70, %66 ]
  call void @llvm.assume(i1 %72)
  %73 = load i8, ptr %16, align 1, !tbaa !70, !range !71, !noundef !72
  %74 = trunc i8 %73 to i1
  br i1 %74, label %75, label %87

75:                                               ; preds = %71
  %76 = load i32, ptr %10, align 4, !tbaa !4
  %77 = load i32, ptr %9, align 4, !tbaa !4
  %78 = icmp ugt i32 %76, %77
  %79 = xor i1 %78, true
  %80 = xor i1 %79, true
  %81 = zext i1 %80 to i32
  %82 = sext i32 %81 to i64
  %83 = call i64 @llvm.expect.i64(i64 %82, i64 0)
  %84 = icmp ne i64 %83, 0
  br i1 %84, label %85, label %86

85:                                               ; preds = %75
  br label %111

86:                                               ; preds = %75
  br label %87

87:                                               ; preds = %86, %71
  %88 = load ptr, ptr %11, align 8, !tbaa !67
  %89 = getelementptr inbounds nuw %struct._zval_struct, ptr %88, i32 1
  store ptr %89, ptr %11, align 8, !tbaa !67
  %90 = load ptr, ptr %11, align 8, !tbaa !67
  store ptr %90, ptr %12, align 8, !tbaa !67
  %91 = load ptr, ptr %12, align 8, !tbaa !67
  %92 = call zeroext i1 @zend_parse_arg_resource(ptr noundef %91, ptr noundef %5, i1 noundef zeroext false)
  %93 = xor i1 %92, true
  %94 = xor i1 %93, true
  %95 = xor i1 %94, true
  %96 = zext i1 %95 to i32
  %97 = sext i32 %96 to i64
  %98 = call i64 @llvm.expect.i64(i64 %97, i64 0)
  %99 = icmp ne i64 %98, 0
  br i1 %99, label %100, label %101

100:                                              ; preds = %87
  store i32 14, ptr %13, align 4, !tbaa !4
  store i32 9, ptr %17, align 4, !tbaa !4
  br label %111

101:                                              ; preds = %87
  %102 = load i32, ptr %10, align 4, !tbaa !4
  %103 = load i32, ptr %8, align 4, !tbaa !4
  %104 = icmp eq i32 %102, %103
  br i1 %104, label %108, label %105

105:                                              ; preds = %101
  %106 = load i32, ptr %8, align 4, !tbaa !4
  %107 = icmp eq i32 %106, -1
  br label %108

108:                                              ; preds = %105, %101
  %109 = phi i1 [ true, %101 ], [ %107, %105 ]
  call void @llvm.assume(i1 %109)
  br label %110

110:                                              ; preds = %108
  br label %111

111:                                              ; preds = %110, %100, %85, %45
  %112 = load i32, ptr %17, align 4, !tbaa !4
  %113 = icmp ne i32 %112, 0
  %114 = xor i1 %113, true
  %115 = xor i1 %114, true
  %116 = zext i1 %115 to i32
  %117 = sext i32 %116 to i64
  %118 = call i64 @llvm.expect.i64(i64 %117, i64 0)
  %119 = icmp ne i64 %118, 0
  br i1 %119, label %120, label %126

120:                                              ; preds = %111
  %121 = load i32, ptr %17, align 4, !tbaa !4
  %122 = load i32, ptr %10, align 4, !tbaa !4
  %123 = load ptr, ptr %14, align 8, !tbaa !69
  %124 = load i32, ptr %13, align 4, !tbaa !4
  %125 = load ptr, ptr %12, align 8, !tbaa !67
  call void @zend_wrong_parameter_error(i32 noundef %121, i32 noundef %122, ptr noundef %123, i32 noundef %124, ptr noundef %125)
  store i32 1, ptr %18, align 4
  br label %127

126:                                              ; preds = %111
  store i32 0, ptr %18, align 4
  br label %127

127:                                              ; preds = %126, %120
  call void @llvm.lifetime.end.p0(i64 4, ptr %17) #14
  call void @llvm.lifetime.end.p0(i64 1, ptr %16) #14
  call void @llvm.lifetime.end.p0(i64 1, ptr %15) #14
  call void @llvm.lifetime.end.p0(i64 8, ptr %14) #14
  call void @llvm.lifetime.end.p0(i64 4, ptr %13) #14
  call void @llvm.lifetime.end.p0(i64 8, ptr %12) #14
  call void @llvm.lifetime.end.p0(i64 8, ptr %11) #14
  call void @llvm.lifetime.end.p0(i64 4, ptr %10) #14
  call void @llvm.lifetime.end.p0(i64 4, ptr %9) #14
  call void @llvm.lifetime.end.p0(i64 4, ptr %8) #14
  call void @llvm.lifetime.end.p0(i64 4, ptr %7) #14
  call void @llvm.lifetime.end.p0(i64 4, ptr %6) #14
  %128 = load i32, ptr %18, align 4
  switch i32 %128, label %148 [
    i32 0, label %129
  ]

129:                                              ; preds = %127
  br label %130

130:                                              ; preds = %129
  br label %131

131:                                              ; preds = %130
  br label %132

132:                                              ; preds = %131
  br label %133

133:                                              ; preds = %132
  call void @llvm.lifetime.start.p0(i64 8, ptr %19) #14
  %134 = load ptr, ptr %4, align 8, !tbaa !67
  store ptr %134, ptr %19, align 8, !tbaa !67
  %135 = load ptr, ptr %5, align 8, !tbaa !67
  %136 = getelementptr inbounds nuw %struct._zval_struct, ptr %135, i32 0, i32 0
  %137 = load ptr, ptr %136, align 8, !tbaa !31
  %138 = getelementptr inbounds nuw %struct._zend_resource, ptr %137, i32 0, i32 1
  %139 = load i64, ptr %138, align 8, !tbaa !186
  %140 = load ptr, ptr %19, align 8, !tbaa !67
  %141 = getelementptr inbounds nuw %struct._zval_struct, ptr %140, i32 0, i32 0
  store i64 %139, ptr %141, align 8, !tbaa !31
  %142 = load ptr, ptr %19, align 8, !tbaa !67
  %143 = getelementptr inbounds nuw %struct._zval_struct, ptr %142, i32 0, i32 1
  store i32 4, ptr %143, align 8, !tbaa !31
  call void @llvm.lifetime.end.p0(i64 8, ptr %19) #14
  br label %144

144:                                              ; preds = %133
  br label %145

145:                                              ; preds = %144
  store i32 1, ptr %18, align 4
  br label %148

146:                                              ; No predecessors!
  br label %147

147:                                              ; preds = %146
  store i32 0, ptr %18, align 4
  br label %148

148:                                              ; preds = %147, %145, %127
  call void @llvm.lifetime.end.p0(i64 8, ptr %5) #14
  %149 = load i32, ptr %18, align 4
  switch i32 %149, label %151 [
    i32 0, label %150
    i32 1, label %150
  ]

150:                                              ; preds = %148, %148
  ret void

151:                                              ; preds = %148
  unreachable
}