; Function Attrs: nounwind uwtable
define hidden void @zif_get_resource_id(ptr noundef %0, ptr noundef writeonly captures(none) %1) #0 {
  %3 = getelementptr inbounds nuw i8, ptr %0, i64 44
  %4 = load i32, ptr %3, align 4, !tbaa !28
  %cond = icmp eq i32 %4, 1
  br i1 %cond, label %5, label %.thread, !prof !94

.thread:                                          ; preds = %2
  tail call void @zend_wrong_parameters_count_error(i32 noundef 1, i32 noundef 1) #14
  br label %10

5:                                                ; preds = %2
  %6 = getelementptr inbounds nuw i8, ptr %0, i64 80
  %7 = getelementptr inbounds nuw i8, ptr %0, i64 88
  %8 = load i8, ptr %7, align 8, !tbaa !28
  %9 = icmp eq i8 %8, 9
  br i1 %9, label %.critedge, label %10, !prof !95

10:                                               ; preds = %.thread, %5
  %.051 = phi i32 [ 0, %.thread ], [ 1, %5 ]
  %.03450 = phi i32 [ 1, %.thread ], [ 9, %5 ]
  %.03549 = phi ptr [ null, %.thread ], [ %6, %5 ]
  %.03648 = phi i32 [ 0, %.thread ], [ 14, %5 ]
  tail call void @zend_wrong_parameter_error(i32 noundef %.03450, i32 noundef %.051, ptr noundef null, i32 noundef %.03648, ptr noundef %.03549) #14
  br label %15

.critedge:                                        ; preds = %5
  %11 = load ptr, ptr %6, align 8, !tbaa !28
  %12 = getelementptr inbounds nuw i8, ptr %11, i64 8
  %13 = load i64, ptr %12, align 8, !tbaa !169
  store i64 %13, ptr %1, align 8, !tbaa !28
  %14 = getelementptr inbounds nuw i8, ptr %1, i64 8
  store i32 4, ptr %14, align 8, !tbaa !28
  br label %15

15:                                               ; preds = %10, %.critedge
  ret void
}